; Function Attrs: nounwind uwtable
define internal range(i32 0, 2) i32 @hf_sleep(ptr noundef readonly captures(none) %0) #1 {
  %2 = load ptr, ptr %0, align 8, !tbaa !107
  %3 = getelementptr inbounds nuw i8, ptr %2, i64 112
  %4 = load ptr, ptr %3, align 8, !tbaa !100
  %5 = getelementptr inbounds nuw i8, ptr %2, i64 104
  %6 = load ptr, ptr %5, align 8, !tbaa !95
  %7 = ptrtoint ptr %4 to i64
  %8 = ptrtoint ptr %6 to i64
  %9 = sub i64 %7, %8
  %10 = tail call i32 @test_size_t_ge(ptr noundef nonnull @.str.42, i32 noundef 629, ptr noundef nonnull @.str.55, ptr noundef nonnull @.str.56, i64 noundef %9, i64 noundef 8) #12
  %.not.i = icmp eq i32 %10, 0
  br i1 %.not.i, label %TERP_stk_pop.exit, label %11

11:                                               ; preds = %1
  %12 = load ptr, ptr %5, align 8, !tbaa !95
  %13 = load i64, ptr %12, align 1
  %14 = getelementptr inbounds nuw i8, ptr %12, i64 8
  store ptr %14, ptr %5, align 8, !tbaa !95
  br label %TERP_stk_pop.exit

TERP_stk_pop.exit:                                ; preds = %1, %11
  %.01 = phi i64 [ 0, %1 ], [ %13, %11 ]
  %.0.i = phi i32 [ 0, %1 ], [ 1, %11 ]
  %15 = tail call i32 @test_true(ptr noundef nonnull @.str.44, i32 noundef 981, ptr noundef nonnull @.str.182, i32 noundef %.0.i) #12
  %.not = icmp eq i32 %15, 0
  br i1 %.not, label %17, label %16

16:                                               ; preds = %TERP_stk_pop.exit
  tail call void @OSSL_sleep(i64 noundef %.01) #12
  br label %17

17:                                               ; preds = %TERP_stk_pop.exit, %16
  %.0 = phi i32 [ 1, %16 ], [ 0, %TERP_stk_pop.exit ]
  ret i32 %.0
}